target datalayout = "e-m:e-p270:32:32-p271:32:32-p272:64:64-i64:64-i128:128-f80:128-n8:16:32:64-S128"
target triple = "x86_64-pc-linux-gnu"

%struct.H5F_t = type { ptr, ptr, ptr, ptr, i32, ptr, i8, i8, ptr, i32 }
%struct.H5FO_obj_count_t = type { i64, i64 }

; Function Attrs: nounwind uwtable
define i64 @H5FO_top_count(ptr noundef %0, i64 noundef %1) #0 {
  %3 = alloca ptr, align 8
  %4 = alloca i64, align 8
  %5 = alloca ptr, align 8
  %6 = alloca i64, align 8
  store ptr %0, ptr %3, align 8, !tbaa !3
  store i64 %1, ptr %4, align 8, !tbaa !39
  call void @llvm.lifetime.start.p0(i64 8, ptr %5) #3
  call void @llvm.lifetime.start.p0(i64 8, ptr %6) #3
  %7 = load ptr, ptr %3, align 8, !tbaa !3
  %8 = getelementptr inbounds nuw %struct.H5F_t, ptr %7, i32 0, i32 5
  %9 = load ptr, ptr %8, align 8, !tbaa !49
  %10 = call ptr @H5SL_search(ptr noundef %9, ptr noundef %4)
  store ptr %10, ptr %5, align 8, !tbaa !50
  %11 = icmp ne ptr null, %10
  br i1 %11, label %12, label %16

12:                                               ; preds = %2
  %13 = load ptr, ptr %5, align 8, !tbaa !50
  %14 = getelementptr inbounds nuw %struct.H5FO_obj_count_t, ptr %13, i32 0, i32 1
  %15 = load i64, ptr %14, align 8, !tbaa !52
  store i64 %15, ptr %6, align 8, !tbaa !39
  br label %17

16:                                               ; preds = %2
  store i64 0, ptr %6, align 8, !tbaa !39
  br label %17

17:                                               ; preds = %16, %12
  %18 = load i64, ptr %6, align 8, !tbaa !39
  call void @llvm.lifetime.end.p0(i64 8, ptr %6) #3
  call void @llvm.lifetime.end.p0(i64 8, ptr %5) #3
  ret i64 %18
}