; Function Attrs: nounwind uwtable
define i64 @H5FO_top_count(ptr noundef readonly captures(none) %0, i64 noundef %1) local_unnamed_addr #0 {
  %3 = alloca i64, align 8
  store i64 %1, ptr %3, align 8, !tbaa !36
  %4 = getelementptr inbounds nuw i8, ptr %0, i64 40
  %5 = load ptr, ptr %4, align 8, !tbaa !43
  %6 = call ptr @H5SL_search(ptr noundef %5, ptr noundef nonnull %3) #2
  %.not = icmp eq ptr %6, null
  br i1 %.not, label %10, label %7

7:                                                ; preds = %2
  %8 = getelementptr inbounds nuw i8, ptr %6, i64 8
  %9 = load i64, ptr %8, align 8, !tbaa !44
  br label %10

10:                                               ; preds = %2, %7
  %.0 = phi i64 [ %9, %7 ], [ 0, %2 ]
  ret i64 %.0
}